target datalayout = "e-m:e-p270:32:32-p271:32:32-p272:64:64-i64:64-i128:128-f80:128-n8:16:32:64-S128"
target triple = "x86_64-pc-linux-gnu"

; Function Attrs: nounwind sspstrong uwtable
define internal i64 @rb_mod_attr_accessor(i32 noundef %0, ptr noundef %1, i64 noundef %2) #0 {
  %4 = alloca i32, align 4
  %5 = alloca ptr, align 8
  %6 = alloca i64, align 8
  %7 = alloca i32, align 4
  %8 = alloca i64, align 8
  %9 = alloca i64, align 8
  store i32 %0, ptr %4, align 4, !tbaa !7
  store ptr %1, ptr %5, align 8, !tbaa !36
  store i64 %2, ptr %6, align 8, !tbaa !11
  call void @llvm.lifetime.start.p0(i64 4, ptr %7) #28
  call void @llvm.lifetime.start.p0(i64 8, ptr %8) #28
  %10 = load i32, ptr %4, align 4, !tbaa !7
  %11 = mul i32 %10, 2
  %12 = sext i32 %11 to i64
  %13 = call i64 @rb_ary_new_capa(i64 noundef %12)
  store i64 %13, ptr %8, align 8, !tbaa !11
  store i32 0, ptr %7, align 4, !tbaa !7
  br label %14

14:                                               ; preds = %37, %3
  %15 = load i32, ptr %7, align 4, !tbaa !7
  %16 = load i32, ptr %4, align 4, !tbaa !7
  %17 = icmp slt i32 %15, %16
  br i1 %17, label %18, label %40

18:                                               ; preds = %14
  call void @llvm.lifetime.start.p0(i64 8, ptr %9) #28
  %19 = load i64, ptr %6, align 8, !tbaa !11
  %20 = load ptr, ptr %5, align 8, !tbaa !36
  %21 = load i32, ptr %7, align 4, !tbaa !7
  %22 = sext i32 %21 to i64
  %23 = getelementptr i64, ptr %20, i64 %22
  %24 = load i64, ptr %23, align 8, !tbaa !11
  %25 = call i64 @id_for_attr(i64 noundef %19, i64 noundef %24)
  store i64 %25, ptr %9, align 8, !tbaa !11
  %26 = load i64, ptr %6, align 8, !tbaa !11
  %27 = load i64, ptr %9, align 8, !tbaa !11
  call void @rb_attr(i64 noundef %26, i64 noundef %27, i32 noundef 1, i32 noundef 1, i32 noundef 1)
  %28 = load i64, ptr %8, align 8, !tbaa !11
  %29 = load i64, ptr %9, align 8, !tbaa !11
  %30 = call i64 @rb_id2sym(i64 noundef %29)
  %31 = call i64 @rb_ary_push(i64 noundef %28, i64 noundef %30)
  %32 = load i64, ptr %8, align 8, !tbaa !11
  %33 = load i64, ptr %9, align 8, !tbaa !11
  %34 = call i64 @rb_id_attrset(i64 noundef %33)
  %35 = call i64 @rb_id2sym(i64 noundef %34)
  %36 = call i64 @rb_ary_push(i64 noundef %32, i64 noundef %35)
  call void @llvm.lifetime.end.p0(i64 8, ptr %9) #28
  br label %37

37:                                               ; preds = %18
  %38 = load i32, ptr %7, align 4, !tbaa !7
  %39 = add i32 %38, 1
  store i32 %39, ptr %7, align 4, !tbaa !7
  br label %14, !llvm.loop !104

40:                                               ; preds = %14
  %41 = load i64, ptr %8, align 8, !tbaa !11
  call void @llvm.lifetime.end.p0(i64 8, ptr %8) #28
  call void @llvm.lifetime.end.p0(i64 4, ptr %7) #28
  ret i64 %41
}