; Function Attrs: nounwind sspstrong uwtable
define internal i64 @rb_mod_attr_accessor(i32 noundef %0, ptr noundef readonly captures(none) %1, i64 noundef %2) #2 {
  %4 = shl i32 %0, 1
  %5 = sext i32 %4 to i64
  %6 = tail call i64 @rb_ary_new_capa(i64 noundef %5) #23
  %7 = icmp sgt i32 %0, 0
  br i1 %7, label %.lr.ph.preheader, label %._crit_edge

.lr.ph.preheader:                                 ; preds = %3
  %wide.trip.count = zext nneg i32 %0 to i64
  br label %.lr.ph

.lr.ph:                                           ; preds = %.lr.ph.preheader, %.lr.ph
  %indvars.iv = phi i64 [ 0, %.lr.ph.preheader ], [ %indvars.iv.next, %.lr.ph ]
  %8 = getelementptr i64, ptr %1, i64 %indvars.iv
  %9 = load i64, ptr %8, align 8, !tbaa !7
  %10 = tail call fastcc i64 @id_for_attr(i64 noundef %2, i64 noundef %9)
  tail call void @rb_attr(i64 noundef %2, i64 noundef %10, i32 noundef 1, i32 noundef 1, i32 noundef 1) #23
  %11 = tail call i64 @rb_id2sym(i64 noundef %10) #23
  %12 = tail call i64 @rb_ary_push(i64 noundef %6, i64 noundef %11) #23
  %13 = tail call i64 @rb_id_attrset(i64 noundef %10) #23
  %14 = tail call i64 @rb_id2sym(i64 noundef %13) #23
  %15 = tail call i64 @rb_ary_push(i64 noundef %6, i64 noundef %14) #23
  %indvars.iv.next = add nuw nsw i64 %indvars.iv, 1
  %exitcond.not = icmp eq i64 %indvars.iv.next, %wide.trip.count
  br i1 %exitcond.not, label %._crit_edge, label %.lr.ph, !llvm.loop !100

._crit_edge:                                      ; preds = %.lr.ph, %3
  ret i64 %6
}